; Function Attrs: mustprogress uwtable
define hidden void @_ZN4cvc58internal6theory7strings10StringsFmfC2ERNS0_3EnvENS1_9ValuationERNS2_12TermRegistryE(ptr noundef nonnull align 8 dereferenceable(40) %this, ptr noundef nonnull align 8 dereferenceable(576) %env, ptr %valuation.coerce, ptr noundef nonnull align 8 dereferenceable(880) %tr) unnamed_addr #3 align 2 personality ptr @__gxx_personality_v0 {
entry:
  tail call void @_ZN4cvc58internal6EnvObjC2ERNS0_3EnvE(ptr noundef nonnull align 8 dereferenceable(16) %this, ptr noundef nonnull align 8 dereferenceable(576) %env)
  store ptr getelementptr inbounds ({ [4 x ptr] }, ptr @_ZTVN4cvc58internal6theory7strings10StringsFmfE, i64 0, i32 0, i64 2), ptr %this, align 8
  %d_sslds = getelementptr inbounds i8, ptr %this, i64 16
  store ptr null, ptr %d_sslds, align 8
  %d_valuation = getelementptr inbounds i8, ptr %this, i64 24
  store ptr %valuation.coerce, ptr %d_valuation, align 8
  %d_termReg = getelementptr inbounds i8, ptr %this, i64 32
  store ptr %tr, ptr %d_termReg, align 8
  ret void
}